target datalayout = "e-m:e-p270:32:32-p271:32:32-p272:64:64-i64:64-i128:128-f80:128-n8:16:32:64-S128"
target triple = "x86_64-pc-linux-gnu"

%struct.heur_dtbl_entry = type { ptr, ptr, ptr, ptr, ptr, i8, i8 }

@global_filter_nodes = internal global ptr @.str.347, align 8
@.str.264 = private unnamed_addr constant [21 x i8] c"opensafety_sercosiii\00", align 1
@heuristic_siii_dissection_enabled = internal global i8 1, align 1
@global_filter_list = internal global ptr null, align 8
@.str.522 = private unnamed_addr constant [2 x i8] c",\00", align 1

; Function Attrs: null_pointer_is_valid sspstrong uwtable
define internal void @setup_dissector() #0 {
  %1 = alloca ptr, align 8
  %2 = alloca ptr, align 8
  call void @llvm.lifetime.start.p0(i64 8, ptr %1) #12
  store ptr null, ptr %1, align 8
  %3 = call ptr @wmem_file_scope()
  %4 = call noalias ptr @wmem_list_new(ptr noundef %3)
  store ptr %4, ptr @global_filter_list, align 8
  call void @llvm.lifetime.start.p0(i64 8, ptr %2) #12
  %5 = call ptr @wmem_file_scope()
  %6 = load ptr, ptr @global_filter_nodes, align 8
  %7 = call ptr @wmem_strsplit(ptr noundef %5, ptr noundef %6, ptr noundef @.str.522, i32 noundef -1)
  store ptr %7, ptr %2, align 8
  br label %8

8:                                                ; preds = %30, %0
  %9 = load ptr, ptr %2, align 8
  %10 = load ptr, ptr %9, align 8
  %11 = icmp ne ptr null, %10
  br i1 %11, label %12, label %33

12:                                               ; preds = %8
  %13 = load ptr, ptr %2, align 8
  %14 = load ptr, ptr %13, align 8
  %15 = icmp ne ptr %14, null
  br i1 %15, label %16, label %29

16:                                               ; preds = %12
  %17 = load ptr, ptr %2, align 8
  %18 = load ptr, ptr %17, align 8
  %19 = call i64 @g_ascii_strtoll(ptr noundef %18, ptr noundef null, i32 noundef 10)
  %20 = icmp sgt i64 %19, 0
  br i1 %20, label %21, label %29

21:                                               ; preds = %16
  %22 = load ptr, ptr @global_filter_list, align 8
  %23 = load ptr, ptr %2, align 8
  %24 = load ptr, ptr %23, align 8
  %25 = call i64 @g_ascii_strtoll(ptr noundef %24, ptr noundef null, i32 noundef 10)
  %26 = trunc i64 %25 to i32
  %27 = sext i32 %26 to i64
  %28 = inttoptr i64 %27 to ptr
  call void @wmem_list_append(ptr noundef %22, ptr noundef %28)
  br label %29

29:                                               ; preds = %21, %16, %12
  br label %30

30:                                               ; preds = %29
  %31 = load ptr, ptr %2, align 8
  %32 = getelementptr ptr, ptr %31, i32 1
  store ptr %32, ptr %2, align 8
  br label %8, !llvm.loop !10

33:                                               ; preds = %8
  %34 = call ptr @find_heur_dissector_by_unique_short_name(ptr noundef @.str.264)
  store ptr %34, ptr %1, align 8
  %35 = load ptr, ptr %1, align 8
  %36 = icmp ne ptr %35, null
  br i1 %36, label %37, label %43

37:                                               ; preds = %33
  %38 = load ptr, ptr %1, align 8
  %39 = getelementptr inbounds nuw %struct.heur_dtbl_entry, ptr %38, i32 0, i32 5
  %40 = load i8, ptr %39, align 8, !range !6, !noundef !7
  %41 = trunc i8 %40 to i1
  %42 = zext i1 %41 to i8
  store i8 %42, ptr @heuristic_siii_dissection_enabled, align 1
  br label %43

43:                                               ; preds = %37, %33
  call void @llvm.lifetime.end.p0(i64 8, ptr %2) #12
  call void @llvm.lifetime.end.p0(i64 8, ptr %1) #12
  ret void
}