; Function Attrs: null_pointer_is_valid sspstrong uwtable
define internal void @setup_dissector() #0 {
  %1 = tail call ptr @wmem_file_scope()
  %2 = tail call noalias ptr @wmem_list_new(ptr noundef %1)
  store ptr %2, ptr @global_filter_list, align 8
  %3 = tail call ptr @wmem_file_scope()
  %4 = load ptr, ptr @global_filter_nodes, align 8
  %5 = tail call ptr @wmem_strsplit(ptr noundef %3, ptr noundef %4, ptr noundef nonnull @.str.522, i32 noundef -1)
  %6 = load ptr, ptr %5, align 8
  %.not10 = icmp eq ptr %6, null
  br i1 %.not10, label %._crit_edge, label %.lr.ph

.lr.ph:                                           ; preds = %0, %16
  %7 = phi ptr [ %18, %16 ], [ %6, %0 ]
  %.011 = phi ptr [ %17, %16 ], [ %5, %0 ]
  %8 = tail call i64 @g_ascii_strtoll(ptr noundef nonnull %7, ptr noundef null, i32 noundef 10)
  %9 = icmp sgt i64 %8, 0
  br i1 %9, label %10, label %16

10:                                               ; preds = %.lr.ph
  %11 = load ptr, ptr @global_filter_list, align 8
  %12 = load ptr, ptr %.011, align 8
  %13 = tail call i64 @g_ascii_strtoll(ptr noundef %12, ptr noundef null, i32 noundef 10)
  %sext = shl i64 %13, 32
  %14 = ashr exact i64 %sext, 32
  %15 = inttoptr i64 %14 to ptr
  tail call void @wmem_list_append(ptr noundef %11, ptr noundef %15)
  br label %16

16:                                               ; preds = %.lr.ph, %10
  %17 = getelementptr i8, ptr %.011, i64 8
  %18 = load ptr, ptr %17, align 8
  %.not = icmp eq ptr %18, null
  br i1 %.not, label %._crit_edge, label %.lr.ph, !llvm.loop !10

._crit_edge:                                      ; preds = %16, %0
  %19 = tail call ptr @find_heur_dissector_by_unique_short_name(ptr noundef nonnull @.str.264)
  %.not9 = icmp eq ptr %19, null
  br i1 %.not9, label %23, label %20

20:                                               ; preds = %._crit_edge
  %21 = getelementptr inbounds nuw i8, ptr %19, i64 40
  %22 = load i8, ptr %21, align 8, !range !6, !noundef !7
  store i8 %22, ptr @heuristic_siii_dissection_enabled, align 1
  br label %23

23:                                               ; preds = %20, %._crit_edge
  ret void
}